; ModuleID = '63/2008.c'
source_filename = "63/2008.c"
target datalayout = "e-m:e-p270:32:32-p271:32:32-p272:64:64-i64:64-f80:128-n8:16:32:64-S128"
target triple = "x86_64-pc-linux-gnu"

@.str = private unnamed_addr constant [6 x i8] c"%d %d\00", align 1
@.str.1 = private unnamed_addr constant [3 x i8] c"%d\00", align 1
@.str.2 = private unnamed_addr constant [4 x i8] c"%d \00", align 1
@.str.3 = private unnamed_addr constant [4 x i8] c"%d\0A\00", align 1

; Function Attrs: noinline nounwind uwtable
define dso_local i32 @main() #0 {
  %1 = alloca i32, align 4
  %2 = alloca [100 x [100 x i32]], align 16
  %3 = alloca [100 x [100 x i32]], align 16
  %4 = alloca i32, align 4
  %5 = alloca i32, align 4
  %6 = alloca i32, align 4
  %7 = alloca i32, align 4
  %8 = alloca i32, align 4
  %9 = alloca [100 x [100 x i32]], align 16
  %10 = alloca i32, align 4
  store i32 0, i32* %1, align 4
  %11 = call i32 (i8*, ...) @__isoc99_scanf(i8* getelementptr inbounds ([6 x i8], [6 x i8]* @.str, i64 0, i64 0), i32* %4, i32* %5)
  store i32 0, i32* %7, align 4
  br label %12

12:                                               ; preds = %33, %0
  %13 = load i32, i32* %7, align 4
  %14 = load i32, i32* %4, align 4
  %15 = icmp slt i32 %13, %14
  br i1 %15, label %16, label %36

16:                                               ; preds = %12
  store i32 0, i32* %8, align 4
  br label %17

17:                                               ; preds = %29, %16
  %18 = load i32, i32* %8, align 4
  %19 = load i32, i32* %5, align 4
  %20 = icmp slt i32 %18, %19
  br i1 %20, label %21, label %32

21:                                               ; preds = %17
  %22 = load i32, i32* %7, align 4
  %23 = sext i32 %22 to i64
  %24 = getelementptr inbounds [100 x [100 x i32]], [100 x [100 x i32]]* %2, i64 0, i64 %23
  %25 = load i32, i32* %8, align 4
  %26 = sext i32 %25 to i64
  %27 = getelementptr inbounds [100 x i32], [100 x i32]* %24, i64 0, i64 %26
  %28 = call i32 (i8*, ...) @__isoc99_scanf(i8* getelementptr inbounds ([3 x i8], [3 x i8]* @.str.1, i64 0, i64 0), i32* %27)
  br label %29

29:                                               ; preds = %21
  %30 = load i32, i32* %8, align 4
  %31 = add nsw i32 %30, 1
  store i32 %31, i32* %8, align 4
  br label %17

32:                                               ; preds = %17
  br label %33

33:                                               ; preds = %32
  %34 = load i32, i32* %7, align 4
  %35 = add nsw i32 %34, 1
  store i32 %35, i32* %7, align 4
  br label %12

36:                                               ; preds = %12
  %37 = call i32 (i8*, ...) @__isoc99_scanf(i8* getelementptr inbounds ([6 x i8], [6 x i8]* @.str, i64 0, i64 0), i32* %5, i32* %6)
  store i32 0, i32* %7, align 4
  br label %38

38:                                               ; preds = %59, %36
  %39 = load i32, i32* %7, align 4
  %40 = load i32, i32* %5, align 4
  %41 = icmp slt i32 %39, %40
  br i1 %41, label %42, label %62

42:                                               ; preds = %38
  store i32 0, i32* %8, align 4
  br label %43

43:                                               ; preds = %55, %42
  %44 = load i32, i32* %8, align 4
  %45 = load i32, i32* %6, align 4
  %46 = icmp slt i32 %44, %45
  br i1 %46, label %47, label %58

47:                                               ; preds = %43
  %48 = load i32, i32* %7, align 4
  %49 = sext i32 %48 to i64
  %50 = getelementptr inbounds [100 x [100 x i32]], [100 x [100 x i32]]* %3, i64 0, i64 %49
  %51 = load i32, i32* %8, align 4
  %52 = sext i32 %51 to i64
  %53 = getelementptr inbounds [100 x i32], [100 x i32]* %50, i64 0, i64 %52
  %54 = call i32 (i8*, ...) @__isoc99_scanf(i8* getelementptr inbounds ([3 x i8], [3 x i8]* @.str.1, i64 0, i64 0), i32* %53)
  br label %55

55:                                               ; preds = %47
  %56 = load i32, i32* %8, align 4
  %57 = add nsw i32 %56, 1
  store i32 %57, i32* %8, align 4
  br label %43

58:                                               ; preds = %43
  br label %59

59:                                               ; preds = %58
  %60 = load i32, i32* %7, align 4
  %61 = add nsw i32 %60, 1
  store i32 %61, i32* %7, align 4
  br label %38

62:                                               ; preds = %38
  %63 = bitcast [100 x [100 x i32]]* %9 to i8*
  call void @llvm.memset.p0i8.i64(i8* align 16 %63, i8 0, i64 40000, i1 false)
  store i32 0, i32* %7, align 4
  br label %64

64:                                               ; preds = %116, %62
  %65 = load i32, i32* %7, align 4
  %66 = load i32, i32* %4, align 4
  %67 = icmp slt i32 %65, %66
  br i1 %67, label %68, label %119

68:                                               ; preds = %64
  store i32 0, i32* %8, align 4
  br label %69

69:                                               ; preds = %112, %68
  %70 = load i32, i32* %8, align 4
  %71 = load i32, i32* %6, align 4
  %72 = icmp slt i32 %70, %71
  br i1 %72, label %73, label %115

73:                                               ; preds = %69
  store i32 0, i32* %10, align 4
  br label %74

74:                                               ; preds = %108, %73
  %75 = load i32, i32* %10, align 4
  %76 = load i32, i32* %5, align 4
  %77 = icmp slt i32 %75, %76
  br i1 %77, label %78, label %111

78:                                               ; preds = %74
  %79 = load i32, i32* %7, align 4
  %80 = sext i32 %79 to i64
  %81 = getelementptr inbounds [100 x [100 x i32]], [100 x [100 x i32]]* %9, i64 0, i64 %80
  %82 = load i32, i32* %8, align 4
  %83 = sext i32 %82 to i64
  %84 = getelementptr inbounds [100 x i32], [100 x i32]* %81, i64 0, i64 %83
  %85 = load i32, i32* %84, align 4
  %86 = load i32, i32* %7, align 4
  %87 = sext i32 %86 to i64
  %88 = getelementptr inbounds [100 x [100 x i32]], [100 x [100 x i32]]* %2, i64 0, i64 %87
  %89 = load i32, i32* %10, align 4
  %90 = sext i32 %89 to i64
  %91 = getelementptr inbounds [100 x i32], [100 x i32]* %88, i64 0, i64 %90
  %92 = load i32, i32* %91, align 4
  %93 = load i32, i32* %10, align 4
  %94 = sext i32 %93 to i64
  %95 = getelementptr inbounds [100 x [100 x i32]], [100 x [100 x i32]]* %3, i64 0, i64 %94
  %96 = load i32, i32* %8, align 4
  %97 = sext i32 %96 to i64
  %98 = getelementptr inbounds [100 x i32], [100 x i32]* %95, i64 0, i64 %97
  %99 = load i32, i32* %98, align 4
  %100 = mul nsw i32 %92, %99
  %101 = add nsw i32 %85, %100
  %102 = load i32, i32* %7, align 4
  %103 = sext i32 %102 to i64
  %104 = getelementptr inbounds [100 x [100 x i32]], [100 x [100 x i32]]* %9, i64 0, i64 %103
  %105 = load i32, i32* %8, align 4
  %106 = sext i32 %105 to i64
  %107 = getelementptr inbounds [100 x i32], [100 x i32]* %104, i64 0, i64 %106
  store i32 %101, i32* %107, align 4
  br label %108

108:                                              ; preds = %78
  %109 = load i32, i32* %10, align 4
  %110 = add nsw i32 %109, 1
  store i32 %110, i32* %10, align 4
  br label %74

111:                                              ; preds = %74
  br label %112

112:                                              ; preds = %111
  %113 = load i32, i32* %8, align 4
  %114 = add nsw i32 %113, 1
  store i32 %114, i32* %8, align 4
  br label %69

115:                                              ; preds = %69
  br label %116

116:                                              ; preds = %115
  %117 = load i32, i32* %7, align 4
  %118 = add nsw i32 %117, 1
  store i32 %118, i32* %7, align 4
  br label %64

119:                                              ; preds = %64
  store i32 0, i32* %7, align 4
  br label %120

120:                                              ; preds = %157, %119
  %121 = load i32, i32* %7, align 4
  %122 = load i32, i32* %4, align 4
  %123 = icmp slt i32 %121, %122
  br i1 %123, label %124, label %160

124:                                              ; preds = %120
  store i32 0, i32* %8, align 4
  br label %125

125:                                              ; preds = %153, %124
  %126 = load i32, i32* %8, align 4
  %127 = load i32, i32* %6, align 4
  %128 = icmp slt i32 %126, %127
  br i1 %128, label %129, label %156

129:                                              ; preds = %125
  %130 = load i32, i32* %8, align 4
  %131 = load i32, i32* %6, align 4
  %132 = sub nsw i32 %131, 1
  %133 = icmp ne i32 %130, %132
  br i1 %133, label %134, label %143

134:                                              ; preds = %129
  %135 = load i32, i32* %7, align 4
  %136 = sext i32 %135 to i64
  %137 = getelementptr inbounds [100 x [100 x i32]], [100 x [100 x i32]]* %9, i64 0, i64 %136
  %138 = load i32, i32* %8, align 4
  %139 = sext i32 %138 to i64
  %140 = getelementptr inbounds [100 x i32], [100 x i32]* %137, i64 0, i64 %139
  %141 = load i32, i32* %140, align 4
  %142 = call i32 (i8*, ...) @printf(i8* getelementptr inbounds ([4 x i8], [4 x i8]* @.str.2, i64 0, i64 0), i32 %141)
  br label %152

143:                                              ; preds = %129
  %144 = load i32, i32* %7, align 4
  %145 = sext i32 %144 to i64
  %146 = getelementptr inbounds [100 x [100 x i32]], [100 x [100 x i32]]* %9, i64 0, i64 %145
  %147 = load i32, i32* %8, align 4
  %148 = sext i32 %147 to i64
  %149 = getelementptr inbounds [100 x i32], [100 x i32]* %146, i64 0, i64 %148
  %150 = load i32, i32* %149, align 4
  %151 = call i32 (i8*, ...) @printf(i8* getelementptr inbounds ([4 x i8], [4 x i8]* @.str.3, i64 0, i64 0), i32 %150)
  br label %152

152:                                              ; preds = %143, %134
  br label %153

153:                                              ; preds = %152
  %154 = load i32, i32* %8, align 4
  %155 = add nsw i32 %154, 1
  store i32 %155, i32* %8, align 4
  br label %125

156:                                              ; preds = %125
  br label %157

157:                                              ; preds = %156
  %158 = load i32, i32* %7, align 4
  %159 = add nsw i32 %158, 1
  store i32 %159, i32* %7, align 4
  br label %120

160:                                              ; preds = %120
  ret i32 0
}

declare dso_local i32 @__isoc99_scanf(i8*, ...) #1

; Function Attrs: argmemonly nounwind willreturn
declare void @llvm.memset.p0i8.i64(i8* nocapture writeonly, i8, i64, i1 immarg) #2

declare dso_local i32 @printf(i8*, ...) #1


!llvm.module.flags = !{!0}
!llvm.ident = !{!1}

!0 = !{i32 1, !"wchar_size", i32 4}
!1 = !{!"clang version 10.0.0-4ubuntu1 "}
