; ModuleID = 'source-C-CXX/62/2008.c'
source_filename = "source-C-CXX/62/2008.c"
target datalayout = "e-m:e-p270:32:32-p271:32:32-p272:64:64-i64:64-f80:128-n8:16:32:64-S128"
target triple = "x86_64-pc-linux-gnu"

@.str = private unnamed_addr constant [6 x i8] c"%d %d\00", align 1
@.str.1 = private unnamed_addr constant [3 x i8] c"%d\00", align 1
@.str.2 = private unnamed_addr constant [4 x i8] c"%d \00", align 1
@.str.3 = private unnamed_addr constant [4 x i8] c"%d\0A\00", align 1

; Function Attrs: nofree nounwind sspstrong uwtable
define dso_local i32 @main() local_unnamed_addr #0 {
  %1 = alloca [100 x [100 x i32]], align 16
  %2 = alloca [100 x [100 x i32]], align 16
  %3 = alloca i32, align 4
  %4 = alloca i32, align 4
  %5 = alloca i32, align 4
  %6 = alloca [100 x [100 x i32]], align 16
  %7 = bitcast [100 x [100 x i32]]* %1 to i8*
  call void @llvm.lifetime.start.p0i8(i64 40000, i8* nonnull %7) #4
  %8 = bitcast [100 x [100 x i32]]* %2 to i8*
  call void @llvm.lifetime.start.p0i8(i64 40000, i8* nonnull %8) #4
  %9 = bitcast i32* %3 to i8*
  call void @llvm.lifetime.start.p0i8(i64 4, i8* nonnull %9) #4
  %10 = bitcast i32* %4 to i8*
  call void @llvm.lifetime.start.p0i8(i64 4, i8* nonnull %10) #4
  %11 = bitcast i32* %5 to i8*
  call void @llvm.lifetime.start.p0i8(i64 4, i8* nonnull %11) #4
  %12 = call i32 (i8*, ...) @__isoc99_scanf(i8* getelementptr inbounds ([6 x i8], [6 x i8]* @.str, i64 0, i64 0), i32* nonnull %3, i32* nonnull %4)
  %13 = load i32, i32* %3, align 4, !tbaa !5
  %14 = icmp sgt i32 %13, 0
  %15 = load i32, i32* %4, align 4
  %16 = icmp sgt i32 %15, 0
  %17 = select i1 %14, i1 %16, i1 false
  br i1 %17, label %18, label %39

18:                                               ; preds = %0, %33
  %19 = phi i32 [ %34, %33 ], [ %13, %0 ]
  %20 = phi i32 [ %35, %33 ], [ %15, %0 ]
  %21 = phi i64 [ %36, %33 ], [ 0, %0 ]
  %22 = icmp sgt i32 %20, 0
  br i1 %22, label %23, label %33

23:                                               ; preds = %18, %23
  %24 = phi i64 [ %27, %23 ], [ 0, %18 ]
  %25 = getelementptr inbounds [100 x [100 x i32]], [100 x [100 x i32]]* %1, i64 0, i64 %21, i64 %24
  %26 = call i32 (i8*, ...) @__isoc99_scanf(i8* getelementptr inbounds ([3 x i8], [3 x i8]* @.str.1, i64 0, i64 0), i32* nonnull %25)
  %27 = add nuw nsw i64 %24, 1
  %28 = load i32, i32* %4, align 4, !tbaa !5
  %29 = sext i32 %28 to i64
  %30 = icmp slt i64 %27, %29
  br i1 %30, label %23, label %31, !llvm.loop !9

31:                                               ; preds = %23
  %32 = load i32, i32* %3, align 4, !tbaa !5
  br label %33

33:                                               ; preds = %31, %18
  %34 = phi i32 [ %32, %31 ], [ %19, %18 ]
  %35 = phi i32 [ %28, %31 ], [ %20, %18 ]
  %36 = add nuw nsw i64 %21, 1
  %37 = sext i32 %34 to i64
  %38 = icmp slt i64 %36, %37
  br i1 %38, label %18, label %39, !llvm.loop !11

39:                                               ; preds = %33, %0
  %40 = call i32 (i8*, ...) @__isoc99_scanf(i8* getelementptr inbounds ([6 x i8], [6 x i8]* @.str, i64 0, i64 0), i32* nonnull %4, i32* nonnull %5)
  %41 = load i32, i32* %4, align 4, !tbaa !5
  %42 = icmp sgt i32 %41, 0
  %43 = load i32, i32* %5, align 4
  %44 = icmp sgt i32 %43, 0
  %45 = select i1 %42, i1 %44, i1 false
  br i1 %45, label %46, label %67

46:                                               ; preds = %39, %61
  %47 = phi i32 [ %62, %61 ], [ %41, %39 ]
  %48 = phi i32 [ %63, %61 ], [ %43, %39 ]
  %49 = phi i64 [ %64, %61 ], [ 0, %39 ]
  %50 = icmp sgt i32 %48, 0
  br i1 %50, label %51, label %61

51:                                               ; preds = %46, %51
  %52 = phi i64 [ %55, %51 ], [ 0, %46 ]
  %53 = getelementptr inbounds [100 x [100 x i32]], [100 x [100 x i32]]* %2, i64 0, i64 %49, i64 %52
  %54 = call i32 (i8*, ...) @__isoc99_scanf(i8* getelementptr inbounds ([3 x i8], [3 x i8]* @.str.1, i64 0, i64 0), i32* nonnull %53)
  %55 = add nuw nsw i64 %52, 1
  %56 = load i32, i32* %5, align 4, !tbaa !5
  %57 = sext i32 %56 to i64
  %58 = icmp slt i64 %55, %57
  br i1 %58, label %51, label %59, !llvm.loop !13

59:                                               ; preds = %51
  %60 = load i32, i32* %4, align 4, !tbaa !5
  br label %61

61:                                               ; preds = %59, %46
  %62 = phi i32 [ %60, %59 ], [ %47, %46 ]
  %63 = phi i32 [ %56, %59 ], [ %48, %46 ]
  %64 = add nuw nsw i64 %49, 1
  %65 = sext i32 %62 to i64
  %66 = icmp slt i64 %64, %65
  br i1 %66, label %46, label %67, !llvm.loop !14

67:                                               ; preds = %61, %39
  %68 = phi i32 [ %43, %39 ], [ %63, %61 ]
  %69 = phi i32 [ %41, %39 ], [ %62, %61 ]
  %70 = bitcast [100 x [100 x i32]]* %6 to i8*
  call void @llvm.lifetime.start.p0i8(i64 40000, i8* nonnull %70) #4
  call void @llvm.memset.p0i8.i64(i8* noundef nonnull align 16 dereferenceable(40000) %70, i8 0, i64 40000, i1 false)
  %71 = load i32, i32* %3, align 4, !tbaa !5
  %72 = icmp sgt i32 %71, 0
  %73 = icmp sgt i32 %68, 0
  %74 = select i1 %72, i1 %73, i1 false
  br i1 %74, label %75, label %160

75:                                               ; preds = %67
  %76 = icmp sgt i32 %69, 0
  br i1 %76, label %77, label %132

77:                                               ; preds = %75
  %78 = zext i32 %71 to i64
  %79 = zext i32 %68 to i64
  %80 = zext i32 %69 to i64
  %81 = and i64 %80, 1
  %82 = icmp eq i32 %69, 1
  %83 = and i64 %80, 4294967294
  %84 = icmp eq i64 %81, 0
  br label %85

85:                                               ; preds = %77, %126
  %86 = phi i64 [ 0, %77 ], [ %127, %126 ]
  br label %87

87:                                               ; preds = %122, %85
  %88 = phi i64 [ %124, %122 ], [ 0, %85 ]
  %89 = getelementptr inbounds [100 x [100 x i32]], [100 x [100 x i32]]* %6, i64 0, i64 %86, i64 %88
  %90 = load i32, i32* %89, align 4, !tbaa !5
  br i1 %82, label %111, label %91

91:                                               ; preds = %87, %91
  %92 = phi i64 [ %108, %91 ], [ 0, %87 ]
  %93 = phi i32 [ %107, %91 ], [ %90, %87 ]
  %94 = phi i64 [ %109, %91 ], [ %83, %87 ]
  %95 = getelementptr inbounds [100 x [100 x i32]], [100 x [100 x i32]]* %1, i64 0, i64 %86, i64 %92
  %96 = load i32, i32* %95, align 8, !tbaa !5
  %97 = getelementptr inbounds [100 x [100 x i32]], [100 x [100 x i32]]* %2, i64 0, i64 %92, i64 %88
  %98 = load i32, i32* %97, align 4, !tbaa !5
  %99 = mul nsw i32 %98, %96
  %100 = add nsw i32 %99, %93
  %101 = or i64 %92, 1
  %102 = getelementptr inbounds [100 x [100 x i32]], [100 x [100 x i32]]* %1, i64 0, i64 %86, i64 %101
  %103 = load i32, i32* %102, align 4, !tbaa !5
  %104 = getelementptr inbounds [100 x [100 x i32]], [100 x [100 x i32]]* %2, i64 0, i64 %101, i64 %88
  %105 = load i32, i32* %104, align 4, !tbaa !5
  %106 = mul nsw i32 %105, %103
  %107 = add nsw i32 %106, %100
  %108 = add nuw nsw i64 %92, 2
  %109 = add i64 %94, -2
  %110 = icmp eq i64 %109, 0
  br i1 %110, label %111, label %91, !llvm.loop !15

111:                                              ; preds = %91, %87
  %112 = phi i32 [ undef, %87 ], [ %107, %91 ]
  %113 = phi i64 [ 0, %87 ], [ %108, %91 ]
  %114 = phi i32 [ %90, %87 ], [ %107, %91 ]
  br i1 %84, label %122, label %115

115:                                              ; preds = %111
  %116 = getelementptr inbounds [100 x [100 x i32]], [100 x [100 x i32]]* %2, i64 0, i64 %113, i64 %88
  %117 = load i32, i32* %116, align 4, !tbaa !5
  %118 = getelementptr inbounds [100 x [100 x i32]], [100 x [100 x i32]]* %1, i64 0, i64 %86, i64 %113
  %119 = load i32, i32* %118, align 4, !tbaa !5
  %120 = mul nsw i32 %117, %119
  %121 = add nsw i32 %120, %114
  br label %122

122:                                              ; preds = %111, %115
  %123 = phi i32 [ %112, %111 ], [ %121, %115 ]
  store i32 %123, i32* %89, align 4, !tbaa !5
  %124 = add nuw nsw i64 %88, 1
  %125 = icmp eq i64 %124, %79
  br i1 %125, label %126, label %87, !llvm.loop !16

126:                                              ; preds = %122
  %127 = add nuw nsw i64 %86, 1
  %128 = icmp eq i64 %127, %78
  br i1 %128, label %129, label %85, !llvm.loop !17

129:                                              ; preds = %126
  %130 = icmp sgt i32 %68, 0
  %131 = select i1 %72, i1 %130, i1 false
  br i1 %131, label %132, label %160

132:                                              ; preds = %129, %75
  br label %133

133:                                              ; preds = %132, %154
  %134 = phi i32 [ %155, %154 ], [ %71, %132 ]
  %135 = phi i32 [ %156, %154 ], [ %68, %132 ]
  %136 = phi i64 [ %157, %154 ], [ 0, %132 ]
  %137 = icmp sgt i32 %135, 0
  br i1 %137, label %138, label %154

138:                                              ; preds = %133, %138
  %139 = phi i64 [ %148, %138 ], [ 0, %133 ]
  %140 = phi i32 [ %149, %138 ], [ %135, %133 ]
  %141 = add nsw i32 %140, -1
  %142 = zext i32 %141 to i64
  %143 = icmp eq i64 %139, %142
  %144 = getelementptr inbounds [100 x [100 x i32]], [100 x [100 x i32]]* %6, i64 0, i64 %136, i64 %139
  %145 = load i32, i32* %144, align 4, !tbaa !5
  %146 = select i1 %143, i8* getelementptr inbounds ([4 x i8], [4 x i8]* @.str.3, i64 0, i64 0), i8* getelementptr inbounds ([4 x i8], [4 x i8]* @.str.2, i64 0, i64 0)
  %147 = call i32 (i8*, ...) @printf(i8* nonnull dereferenceable(1) %146, i32 %145)
  %148 = add nuw nsw i64 %139, 1
  %149 = load i32, i32* %5, align 4, !tbaa !5
  %150 = sext i32 %149 to i64
  %151 = icmp slt i64 %148, %150
  br i1 %151, label %138, label %152, !llvm.loop !18

152:                                              ; preds = %138
  %153 = load i32, i32* %3, align 4, !tbaa !5
  br label %154

154:                                              ; preds = %152, %133
  %155 = phi i32 [ %153, %152 ], [ %134, %133 ]
  %156 = phi i32 [ %149, %152 ], [ %135, %133 ]
  %157 = add nuw nsw i64 %136, 1
  %158 = sext i32 %155 to i64
  %159 = icmp slt i64 %157, %158
  br i1 %159, label %133, label %160, !llvm.loop !19

160:                                              ; preds = %154, %67, %129
  call void @llvm.lifetime.end.p0i8(i64 40000, i8* nonnull %70) #4
  call void @llvm.lifetime.end.p0i8(i64 4, i8* nonnull %11) #4
  call void @llvm.lifetime.end.p0i8(i64 4, i8* nonnull %10) #4
  call void @llvm.lifetime.end.p0i8(i64 4, i8* nonnull %9) #4
  call void @llvm.lifetime.end.p0i8(i64 40000, i8* nonnull %8) #4
  call void @llvm.lifetime.end.p0i8(i64 40000, i8* nonnull %7) #4
  ret i32 0
}

; Function Attrs: argmemonly mustprogress nofree nosync nounwind willreturn
declare void @llvm.lifetime.start.p0i8(i64 immarg, i8* nocapture) #1

; Function Attrs: nofree nounwind
declare noundef i32 @__isoc99_scanf(i8* nocapture noundef readonly, ...) local_unnamed_addr #2

; Function Attrs: argmemonly mustprogress nofree nounwind willreturn writeonly
declare void @llvm.memset.p0i8.i64(i8* nocapture writeonly, i8, i64, i1 immarg) #3

; Function Attrs: nofree nounwind
declare noundef i32 @printf(i8* nocapture noundef readonly, ...) local_unnamed_addr #2

; Function Attrs: argmemonly mustprogress nofree nosync nounwind willreturn
declare void @llvm.lifetime.end.p0i8(i64 immarg, i8* nocapture) #1


!llvm.module.flags = !{!0, !1, !2, !3}
!llvm.ident = !{!4}

!0 = !{i32 1, !"wchar_size", i32 4}
!1 = !{i32 7, !"PIC Level", i32 2}
!2 = !{i32 7, !"PIE Level", i32 2}
!3 = !{i32 7, !"uwtable", i32 1}
!4 = !{!"clang version 13.0.0"}
!5 = !{!6, !6, i64 0}
!6 = !{!"int", !7, i64 0}
!7 = !{!"omnipotent char", !8, i64 0}
!8 = !{!"Simple C/C++ TBAA"}
!9 = distinct !{!9, !10}
!10 = !{!"llvm.loop.mustprogress"}
!11 = distinct !{!11, !10, !12}
!12 = !{!"llvm.loop.unswitch.partial.disable"}
!13 = distinct !{!13, !10}
!14 = distinct !{!14, !10, !12}
!15 = distinct !{!15, !10}
!16 = distinct !{!16, !10}
!17 = distinct !{!17, !10}
!18 = distinct !{!18, !10}
!19 = distinct !{!19, !10, !12}
